; Function Attrs: mustprogress nounwind uwtable
define noundef ptr @_Z25_gmx_sel_yy_create_bufferP8_IO_FILEiPv(ptr noundef %0, i32 noundef %1, ptr nocapture noundef %2) local_unnamed_addr #1 {
  %4 = tail call noalias noundef dereferenceable_or_null(72) ptr @malloc(i64 noundef 72) #28
  %.not = icmp eq ptr %4, null
  br i1 %.not, label %5, label %6

5:                                                ; preds = %3
  tail call fastcc void @_ZL14yy_fatal_errorPKcPv(ptr noundef nonnull @.str.3) #29
  unreachable

6:                                                ; preds = %3
  %7 = sext i32 %1 to i64
  %8 = getelementptr inbounds i8, ptr %4, i64 24
  store i64 %7, ptr %8, align 8
  %9 = add nsw i64 %7, 2
  %10 = tail call noalias noundef ptr @malloc(i64 noundef %9) #28
  %11 = getelementptr inbounds i8, ptr %4, i64 8
  store ptr %10, ptr %11, align 8
  %.not14 = icmp eq ptr %10, null
  br i1 %.not14, label %12, label %13

12:                                               ; preds = %6
  tail call fastcc void @_ZL14yy_fatal_errorPKcPv(ptr noundef nonnull @.str.3) #29
  unreachable

13:                                               ; preds = %6
  %14 = getelementptr inbounds i8, ptr %4, i64 40
  store i32 1, ptr %14, align 8
  %15 = tail call ptr @__errno_location() #32
  %16 = load i32, ptr %15, align 4
  %17 = getelementptr inbounds i8, ptr %4, i64 32
  store i64 0, ptr %17, align 8
  store i8 0, ptr %10, align 1
  %18 = getelementptr inbounds i8, ptr %10, i64 1
  store i8 0, ptr %18, align 1
  %19 = getelementptr inbounds i8, ptr %4, i64 16
  store ptr %10, ptr %19, align 8
  %20 = getelementptr inbounds i8, ptr %4, i64 48
  store i32 1, ptr %20, align 8
  %21 = getelementptr inbounds i8, ptr %4, i64 64
  store i32 0, ptr %21, align 8
  %22 = getelementptr inbounds i8, ptr %2, i64 40
  %23 = load ptr, ptr %22, align 8
  %.not15.i.i = icmp eq ptr %23, null
  br i1 %.not15.i.i, label %_Z24_gmx_sel_yy_flush_bufferP15yy_buffer_statePv.exit.i, label %.thread

.thread:                                          ; preds = %13
  %24 = getelementptr inbounds i8, ptr %2, i64 24
  %25 = load i64, ptr %24, align 8
  %26 = getelementptr inbounds ptr, ptr %23, i64 %25
  %27 = load ptr, ptr %26, align 8
  %28 = icmp eq ptr %27, %4
  br i1 %28, label %_Z24_gmx_sel_yy_flush_bufferP15yy_buffer_statePv.exit.i.thread, label %_Z24_gmx_sel_yy_flush_bufferP15yy_buffer_statePv.exit.i.thread15

_Z24_gmx_sel_yy_flush_bufferP15yy_buffer_statePv.exit.i.thread: ; preds = %.thread
  %29 = getelementptr inbounds i8, ptr %2, i64 24
  %30 = load i64, ptr %29, align 8
  %31 = getelementptr inbounds ptr, ptr %23, i64 %30
  %32 = load ptr, ptr %31, align 8
  %33 = getelementptr inbounds i8, ptr %32, i64 32
  %34 = load i64, ptr %33, align 8
  %35 = getelementptr inbounds i8, ptr %2, i64 56
  store i64 %34, ptr %35, align 8
  %36 = load ptr, ptr %31, align 8
  %37 = getelementptr inbounds i8, ptr %36, i64 16
  %38 = load ptr, ptr %37, align 8
  %39 = getelementptr inbounds i8, ptr %2, i64 72
  store ptr %38, ptr %39, align 8
  %40 = getelementptr inbounds i8, ptr %2, i64 136
  store ptr %38, ptr %40, align 8
  %41 = load ptr, ptr %31, align 8
  %42 = load ptr, ptr %41, align 8
  %43 = getelementptr inbounds i8, ptr %2, i64 8
  store ptr %42, ptr %43, align 8
  %44 = load i8, ptr %38, align 1
  %45 = getelementptr inbounds i8, ptr %2, i64 48
  store i8 %44, ptr %45, align 8
  br label %_Z24_gmx_sel_yy_flush_bufferP15yy_buffer_statePv.exit.i.thread15

_Z24_gmx_sel_yy_flush_bufferP15yy_buffer_statePv.exit.i: ; preds = %13
  store ptr %0, ptr %4, align 8
  %46 = getelementptr inbounds i8, ptr %4, i64 60
  store i32 1, ptr %46, align 4
  br label %52

_Z24_gmx_sel_yy_flush_bufferP15yy_buffer_statePv.exit.i.thread15: ; preds = %.thread, %_Z24_gmx_sel_yy_flush_bufferP15yy_buffer_statePv.exit.i.thread
  store ptr %0, ptr %4, align 8
  %47 = getelementptr inbounds i8, ptr %4, i64 60
  store i32 1, ptr %47, align 4
  %48 = getelementptr inbounds i8, ptr %2, i64 24
  %49 = load i64, ptr %48, align 8
  %50 = getelementptr inbounds ptr, ptr %23, i64 %49
  %51 = load ptr, ptr %50, align 8
  br label %52

52:                                               ; preds = %_Z24_gmx_sel_yy_flush_bufferP15yy_buffer_statePv.exit.i, %_Z24_gmx_sel_yy_flush_bufferP15yy_buffer_statePv.exit.i.thread15
  %53 = phi ptr [ %51, %_Z24_gmx_sel_yy_flush_bufferP15yy_buffer_statePv.exit.i.thread15 ], [ null, %_Z24_gmx_sel_yy_flush_bufferP15yy_buffer_statePv.exit.i ]
  %.not14.i = icmp eq ptr %53, %4
  br i1 %.not14.i, label %_ZL23_gmx_sel_yy_init_bufferP15yy_buffer_stateP8_IO_FILEPv.exit, label %54

54:                                               ; preds = %52
  %55 = getelementptr inbounds i8, ptr %4, i64 52
  store i32 1, ptr %55, align 4
  %56 = getelementptr inbounds i8, ptr %4, i64 56
  store i32 0, ptr %56, align 8
  br label %_ZL23_gmx_sel_yy_init_bufferP15yy_buffer_stateP8_IO_FILEPv.exit

_ZL23_gmx_sel_yy_init_bufferP15yy_buffer_stateP8_IO_FILEPv.exit: ; preds = %52, %54
  %57 = getelementptr inbounds i8, ptr %4, i64 44
  store i32 0, ptr %57, align 4
  store i32 %16, ptr %15, align 4
  ret ptr %4
}